; Function Attrs: mustprogress uwtable
define hidden void @_ZN9spacer_qe20reduce_array_selectsER5modelRK10ref_vectorI3app11ast_managerER7obj_refI4exprS4_Eb(ptr noundef nonnull align 8 dereferenceable(160) %mdl, ptr noundef nonnull align 8 dereferenceable(16) %arr_vars, ptr noundef nonnull align 8 dereferenceable(16) %fml, i1 noundef zeroext %reduce_all_selects) local_unnamed_addr #3 personality ptr @__gxx_personality_v0 {
entry:
  %ap = alloca %"class.spacer_qe::array_select_reducer", align 8
  %0 = load ptr, ptr %arr_vars, align 8
  call void @_ZN9spacer_qe20array_select_reducerC2ER11ast_manager(ptr noundef nonnull align 8 dereferenceable(241) %ap, ptr noundef nonnull align 8 dereferenceable(976) %0)
  invoke void @_ZN9spacer_qe20array_select_reducerclER5modelRK10ref_vectorI3app11ast_managerER7obj_refI4exprS5_Eb(ptr noundef nonnull align 8 dereferenceable(241) %ap, ptr noundef nonnull align 8 dereferenceable(160) %mdl, ptr noundef nonnull align 8 dereferenceable(16) %arr_vars, ptr noundef nonnull align 8 dereferenceable(16) %fml, i1 noundef zeroext %reduce_all_selects)
          to label %invoke.cont unwind label %lpad

invoke.cont:                                      ; preds = %entry
  call void @_ZN9spacer_qe20array_select_reducerD2Ev(ptr noundef nonnull align 8 dereferenceable(241) %ap) #18
  ret void

lpad:                                             ; preds = %entry
  %1 = landingpad { ptr, i32 }
          cleanup
  call void @_ZN9spacer_qe20array_select_reducerD2Ev(ptr noundef nonnull align 8 dereferenceable(241) %ap) #18
  resume { ptr, i32 } %1
}